target datalayout = "e-m:e-p270:32:32-p271:32:32-p272:64:64-i64:64-i128:128-f80:128-n8:16:32:64-S128"
target triple = "x86_64-unknown-linux-gnu"

%struct.MACAddr = type { [6 x i8] }
%struct.of_dpa_flow_key = type { i32, i32, i32, %struct.anon, %struct.anon.0, %union.anon, i32 }
%struct.anon = type { i16, %struct.MACAddr, %struct.MACAddr, i16 }
%struct.anon.0 = type { i8, i8, i8, i8 }
%union.anon = type { %struct.anon.6 }
%struct.anon.6 = type { %struct.anon.7, i32, %struct.anon.9, %struct.anon.10 }
%struct.anon.7 = type { %struct.ipv6_addr, %struct.ipv6_addr }
%struct.ipv6_addr = type { %union.anon.8 }
%union.anon.8 = type { [4 x i32] }
%struct.anon.9 = type { i16, i16, i16 }
%struct.anon.10 = type { %struct.ipv6_addr, %struct.MACAddr, %struct.MACAddr }
%struct.of_dpa_flow_action = type { i32, %struct.anon.11, %struct.anon.12 }
%struct.anon.11 = type { i32, i32, i16 }
%struct.anon.12 = type { i16, i32, i8, i16 }
%struct.of_dpa_flow_context = type { i32, i32, ptr, i32, %struct.eth_header, %struct.vlan_header, %struct.vlan_header, ptr, %struct.of_dpa_flow_pkt_fields, %struct.of_dpa_flow_action }
%struct.eth_header = type { [6 x i8], [6 x i8], i16 }
%struct.vlan_header = type { i16, i16 }
%struct.of_dpa_flow_pkt_fields = type { i32, ptr, ptr, ptr, ptr, ptr, ptr, ptr }
%struct.of_dpa_flow_match = type { %struct.of_dpa_flow_key, ptr }
%struct.ip_header = type { i8, i8, i16, i16, i16, i8, i8, i16, i32, i32 }
%struct.ip6_header = type { %union.anon.19, %struct.in6_address, %struct.in6_address }
%union.anon.19 = type { %struct.ip6_hdrctl }
%struct.ip6_hdrctl = type { i32, i16, i8, i8 }
%struct.in6_address = type { %union.anon.20 }
%union.anon.20 = type { [16 x i8] }

; Function Attrs: nounwind sspstrong uwtable
define internal void @of_dpa_acl_build_match(ptr noundef %fc, ptr noundef %match) #0 {
entry:
  %fc.addr = alloca ptr, align 8
  %match.addr = alloca ptr, align 8
  store ptr %fc, ptr %fc.addr, align 8
  store ptr %match, ptr %match.addr, align 8
  %0 = load ptr, ptr %match.addr, align 8
  %value = getelementptr inbounds %struct.of_dpa_flow_match, ptr %0, i32 0, i32 0
  %tbl_id = getelementptr inbounds %struct.of_dpa_flow_key, ptr %value, i32 0, i32 2
  store i32 60, ptr %tbl_id, align 8
  %1 = load ptr, ptr %fc.addr, align 8
  %in_pport = getelementptr inbounds %struct.of_dpa_flow_context, ptr %1, i32 0, i32 0
  %2 = load i32, ptr %in_pport, align 8
  %3 = load ptr, ptr %match.addr, align 8
  %value1 = getelementptr inbounds %struct.of_dpa_flow_match, ptr %3, i32 0, i32 0
  %in_pport2 = getelementptr inbounds %struct.of_dpa_flow_key, ptr %value1, i32 0, i32 0
  store i32 %2, ptr %in_pport2, align 8
  %4 = load ptr, ptr %match.addr, align 8
  %value3 = getelementptr inbounds %struct.of_dpa_flow_match, ptr %4, i32 0, i32 0
  %eth = getelementptr inbounds %struct.of_dpa_flow_key, ptr %value3, i32 0, i32 3
  %src = getelementptr inbounds %struct.anon, ptr %eth, i32 0, i32 1
  %a = getelementptr inbounds %struct.MACAddr, ptr %src, i32 0, i32 0
  %arraydecay = getelementptr inbounds [6 x i8], ptr %a, i64 0, i64 0
  %5 = load ptr, ptr %fc.addr, align 8
  %fields = getelementptr inbounds %struct.of_dpa_flow_context, ptr %5, i32 0, i32 8
  %ethhdr = getelementptr inbounds %struct.of_dpa_flow_pkt_fields, ptr %fields, i32 0, i32 1
  %6 = load ptr, ptr %ethhdr, align 8
  %h_source = getelementptr inbounds %struct.eth_header, ptr %6, i32 0, i32 1
  %arraydecay4 = getelementptr inbounds [6 x i8], ptr %h_source, i64 0, i64 0
  call void @llvm.memcpy.p0.p0.i64(ptr align 2 %arraydecay, ptr align 2 %arraydecay4, i64 6, i1 false)
  %7 = load ptr, ptr %match.addr, align 8
  %value5 = getelementptr inbounds %struct.of_dpa_flow_match, ptr %7, i32 0, i32 0
  %eth6 = getelementptr inbounds %struct.of_dpa_flow_key, ptr %value5, i32 0, i32 3
  %dst = getelementptr inbounds %struct.anon, ptr %eth6, i32 0, i32 2
  %a7 = getelementptr inbounds %struct.MACAddr, ptr %dst, i32 0, i32 0
  %arraydecay8 = getelementptr inbounds [6 x i8], ptr %a7, i64 0, i64 0
  %8 = load ptr, ptr %fc.addr, align 8
  %fields9 = getelementptr inbounds %struct.of_dpa_flow_context, ptr %8, i32 0, i32 8
  %ethhdr10 = getelementptr inbounds %struct.of_dpa_flow_pkt_fields, ptr %fields9, i32 0, i32 1
  %9 = load ptr, ptr %ethhdr10, align 8
  %h_dest = getelementptr inbounds %struct.eth_header, ptr %9, i32 0, i32 0
  %arraydecay11 = getelementptr inbounds [6 x i8], ptr %h_dest, i64 0, i64 0
  call void @llvm.memcpy.p0.p0.i64(ptr align 4 %arraydecay8, ptr align 2 %arraydecay11, i64 6, i1 false)
  %10 = load ptr, ptr %fc.addr, align 8
  %fields12 = getelementptr inbounds %struct.of_dpa_flow_context, ptr %10, i32 0, i32 8
  %h_proto = getelementptr inbounds %struct.of_dpa_flow_pkt_fields, ptr %fields12, i32 0, i32 2
  %11 = load ptr, ptr %h_proto, align 8
  %12 = load i16, ptr %11, align 2
  %13 = load ptr, ptr %match.addr, align 8
  %value13 = getelementptr inbounds %struct.of_dpa_flow_match, ptr %13, i32 0, i32 0
  %eth14 = getelementptr inbounds %struct.of_dpa_flow_key, ptr %value13, i32 0, i32 3
  %type = getelementptr inbounds %struct.anon, ptr %eth14, i32 0, i32 3
  store i16 %12, ptr %type, align 2
  %14 = load ptr, ptr %fc.addr, align 8
  %fields15 = getelementptr inbounds %struct.of_dpa_flow_context, ptr %14, i32 0, i32 8
  %vlanhdr = getelementptr inbounds %struct.of_dpa_flow_pkt_fields, ptr %fields15, i32 0, i32 3
  %15 = load ptr, ptr %vlanhdr, align 8
  %h_tci = getelementptr inbounds %struct.vlan_header, ptr %15, i32 0, i32 0
  %16 = load i16, ptr %h_tci, align 2
  %17 = load ptr, ptr %match.addr, align 8
  %value16 = getelementptr inbounds %struct.of_dpa_flow_match, ptr %17, i32 0, i32 0
  %eth17 = getelementptr inbounds %struct.of_dpa_flow_key, ptr %value16, i32 0, i32 3
  %vlan_id = getelementptr inbounds %struct.anon, ptr %eth17, i32 0, i32 0
  store i16 %16, ptr %vlan_id, align 4
  %18 = load ptr, ptr %match.addr, align 8
  %value18 = getelementptr inbounds %struct.of_dpa_flow_match, ptr %18, i32 0, i32 0
  %width = getelementptr inbounds %struct.of_dpa_flow_key, ptr %value18, i32 0, i32 6
  store i32 4, ptr %width, align 8
  %19 = load ptr, ptr %fc.addr, align 8
  %fields19 = getelementptr inbounds %struct.of_dpa_flow_context, ptr %19, i32 0, i32 8
  %ipv4hdr = getelementptr inbounds %struct.of_dpa_flow_pkt_fields, ptr %fields19, i32 0, i32 4
  %20 = load ptr, ptr %ipv4hdr, align 8
  %tobool = icmp ne ptr %20, null
  br i1 %tobool, label %if.then, label %if.else

if.then:                                          ; preds = %entry
  %21 = load ptr, ptr %fc.addr, align 8
  %fields20 = getelementptr inbounds %struct.of_dpa_flow_context, ptr %21, i32 0, i32 8
  %ipv4hdr21 = getelementptr inbounds %struct.of_dpa_flow_pkt_fields, ptr %fields20, i32 0, i32 4
  %22 = load ptr, ptr %ipv4hdr21, align 8
  %ip_p = getelementptr inbounds %struct.ip_header, ptr %22, i32 0, i32 6
  %23 = load i8, ptr %ip_p, align 1
  %24 = load ptr, ptr %match.addr, align 8
  %value22 = getelementptr inbounds %struct.of_dpa_flow_match, ptr %24, i32 0, i32 0
  %ip = getelementptr inbounds %struct.of_dpa_flow_key, ptr %value22, i32 0, i32 4
  %proto = getelementptr inbounds %struct.anon.0, ptr %ip, i32 0, i32 0
  store i8 %23, ptr %proto, align 4
  %25 = load ptr, ptr %fc.addr, align 8
  %fields23 = getelementptr inbounds %struct.of_dpa_flow_context, ptr %25, i32 0, i32 8
  %ipv4hdr24 = getelementptr inbounds %struct.of_dpa_flow_pkt_fields, ptr %fields23, i32 0, i32 4
  %26 = load ptr, ptr %ipv4hdr24, align 8
  %ip_tos = getelementptr inbounds %struct.ip_header, ptr %26, i32 0, i32 1
  %27 = load i8, ptr %ip_tos, align 1
  %28 = load ptr, ptr %match.addr, align 8
  %value25 = getelementptr inbounds %struct.of_dpa_flow_match, ptr %28, i32 0, i32 0
  %ip26 = getelementptr inbounds %struct.of_dpa_flow_key, ptr %value25, i32 0, i32 4
  %tos = getelementptr inbounds %struct.anon.0, ptr %ip26, i32 0, i32 1
  store i8 %27, ptr %tos, align 1
  %29 = load ptr, ptr %match.addr, align 8
  %value27 = getelementptr inbounds %struct.of_dpa_flow_match, ptr %29, i32 0, i32 0
  %width28 = getelementptr inbounds %struct.of_dpa_flow_key, ptr %value27, i32 0, i32 6
  store i32 4, ptr %width28, align 8
  br label %if.end42

if.else:                                          ; preds = %entry
  %30 = load ptr, ptr %fc.addr, align 8
  %fields29 = getelementptr inbounds %struct.of_dpa_flow_context, ptr %30, i32 0, i32 8
  %ipv6hdr = getelementptr inbounds %struct.of_dpa_flow_pkt_fields, ptr %fields29, i32 0, i32 5
  %31 = load ptr, ptr %ipv6hdr, align 8
  %tobool30 = icmp ne ptr %31, null
  br i1 %tobool30, label %if.then31, label %if.end

if.then31:                                        ; preds = %if.else
  %32 = load ptr, ptr %fc.addr, align 8
  %fields32 = getelementptr inbounds %struct.of_dpa_flow_context, ptr %32, i32 0, i32 8
  %ipv6hdr33 = getelementptr inbounds %struct.of_dpa_flow_pkt_fields, ptr %fields32, i32 0, i32 5
  %33 = load ptr, ptr %ipv6hdr33, align 8
  %ip6_ctlun = getelementptr inbounds %struct.ip6_header, ptr %33, i32 0, i32 0
  %ip6_un1_nxt = getelementptr inbounds %struct.ip6_hdrctl, ptr %ip6_ctlun, i32 0, i32 2
  %34 = load i8, ptr %ip6_un1_nxt, align 2
  %35 = load ptr, ptr %match.addr, align 8
  %value34 = getelementptr inbounds %struct.of_dpa_flow_match, ptr %35, i32 0, i32 0
  %ip35 = getelementptr inbounds %struct.of_dpa_flow_key, ptr %value34, i32 0, i32 4
  %proto36 = getelementptr inbounds %struct.anon.0, ptr %ip35, i32 0, i32 0
  store i8 %34, ptr %proto36, align 4
  %36 = load ptr, ptr %match.addr, align 8
  %value37 = getelementptr inbounds %struct.of_dpa_flow_match, ptr %36, i32 0, i32 0
  %ip38 = getelementptr inbounds %struct.of_dpa_flow_key, ptr %value37, i32 0, i32 4
  %tos39 = getelementptr inbounds %struct.anon.0, ptr %ip38, i32 0, i32 1
  store i8 0, ptr %tos39, align 1
  %37 = load ptr, ptr %match.addr, align 8
  %value40 = getelementptr inbounds %struct.of_dpa_flow_match, ptr %37, i32 0, i32 0
  %width41 = getelementptr inbounds %struct.of_dpa_flow_key, ptr %value40, i32 0, i32 6
  store i32 4, ptr %width41, align 8
  br label %if.end

if.end:                                           ; preds = %if.then31, %if.else
  br label %if.end42

if.end42:                                         ; preds = %if.end, %if.then
  ret void
}