; Function Attrs: mustprogress nofree norecurse nosync nounwind sspstrong willreturn memory(readwrite, inaccessiblemem: none) uwtable
define internal void @of_dpa_acl_build_match(ptr noundef readonly captures(none) %fc, ptr noundef writeonly captures(none) initializes((0, 4), (8, 28), (104, 108)) %match) #13 {
entry:
  %tbl_id = getelementptr inbounds nuw i8, ptr %match, i64 8
  store i32 60, ptr %tbl_id, align 8
  %0 = load i32, ptr %fc, align 8
  store i32 %0, ptr %match, align 8
  %eth = getelementptr inbounds nuw i8, ptr %match, i64 12
  %src = getelementptr inbounds nuw i8, ptr %match, i64 14
  %ethhdr = getelementptr inbounds nuw i8, ptr %fc, i64 64
  %1 = load ptr, ptr %ethhdr, align 8
  %h_source = getelementptr inbounds nuw i8, ptr %1, i64 6
  tail call void @llvm.memcpy.p0.p0.i64(ptr noundef nonnull align 2 dereferenceable(6) %src, ptr noundef nonnull align 2 dereferenceable(6) %h_source, i64 6, i1 false)
  %dst = getelementptr inbounds nuw i8, ptr %match, i64 20
  %2 = load ptr, ptr %ethhdr, align 8
  tail call void @llvm.memcpy.p0.p0.i64(ptr noundef nonnull align 4 dereferenceable(6) %dst, ptr noundef nonnull align 2 dereferenceable(6) %2, i64 6, i1 false)
  %h_proto = getelementptr inbounds nuw i8, ptr %fc, i64 72
  %3 = load ptr, ptr %h_proto, align 8
  %4 = load i16, ptr %3, align 2
  %type = getelementptr inbounds nuw i8, ptr %match, i64 26
  store i16 %4, ptr %type, align 2
  %vlanhdr = getelementptr inbounds nuw i8, ptr %fc, i64 80
  %5 = load ptr, ptr %vlanhdr, align 8
  %6 = load i16, ptr %5, align 2
  store i16 %6, ptr %eth, align 4
  %width = getelementptr inbounds nuw i8, ptr %match, i64 104
  store i32 4, ptr %width, align 8
  %ipv4hdr = getelementptr inbounds nuw i8, ptr %fc, i64 88
  %7 = load ptr, ptr %ipv4hdr, align 8
  %tobool.not = icmp eq ptr %7, null
  br i1 %tobool.not, label %if.else, label %if.then

if.then:                                          ; preds = %entry
  %ip_p = getelementptr inbounds nuw i8, ptr %7, i64 9
  %8 = load i8, ptr %ip_p, align 1
  %ip = getelementptr inbounds nuw i8, ptr %match, i64 28
  store i8 %8, ptr %ip, align 4
  %9 = load ptr, ptr %ipv4hdr, align 8
  %ip_tos = getelementptr inbounds nuw i8, ptr %9, i64 1
  %10 = load i8, ptr %ip_tos, align 1
  br label %if.end42.sink.split

if.else:                                          ; preds = %entry
  %ipv6hdr = getelementptr inbounds nuw i8, ptr %fc, i64 96
  %11 = load ptr, ptr %ipv6hdr, align 8
  %tobool30.not = icmp eq ptr %11, null
  br i1 %tobool30.not, label %if.end42, label %if.then31

if.then31:                                        ; preds = %if.else
  %ip6_un1_nxt = getelementptr inbounds nuw i8, ptr %11, i64 6
  %12 = load i8, ptr %ip6_un1_nxt, align 2
  %ip35 = getelementptr inbounds nuw i8, ptr %match, i64 28
  store i8 %12, ptr %ip35, align 4
  br label %if.end42.sink.split

if.end42.sink.split:                              ; preds = %if.then, %if.then31
  %.sink = phi i8 [ 0, %if.then31 ], [ %10, %if.then ]
  %tos39 = getelementptr inbounds nuw i8, ptr %match, i64 29
  store i8 %.sink, ptr %tos39, align 1
  store i32 4, ptr %width, align 8
  br label %if.end42

if.end42:                                         ; preds = %if.end42.sink.split, %if.else
  ret void
}